; Function Attrs: nounwind uwtable
define void @mriStep_DisableLSetup(ptr noundef %0) #0 {
  %2 = getelementptr inbounds nuw i8, ptr %0, i64 136
  %3 = load ptr, ptr %2, align 8, !tbaa !71
  %4 = icmp eq ptr %3, null
  br i1 %4, label %mriStep_AccessStepMem.exit, label %5

mriStep_AccessStepMem.exit:                       ; preds = %1
  tail call void (ptr, i32, i32, ptr, ptr, ptr, ...) @arkProcessError(ptr noundef nonnull %0, i32 noundef -21, i32 noundef 3097, ptr noundef nonnull @__func__.mriStep_DisableLSetup, ptr noundef nonnull @.str, ptr noundef nonnull @.str.75) #14
  br label %7

5:                                                ; preds = %1
  %6 = getelementptr inbounds nuw i8, ptr %3, i64 328
  store ptr null, ptr %6, align 8, !tbaa !110
  br label %7

7:                                                ; preds = %mriStep_AccessStepMem.exit, %5
  ret void
}